target datalayout = "e-m:e-p270:32:32-p271:32:32-p272:64:64-i64:64-i128:128-f80:128-n8:16:32:64-S128"
target triple = "x86_64-pc-linux-gnu"

%"class.ceres::internal::ProblemImpl" = type { %"struct.ceres::Problem::Options", i8, ptr, %"class.std::map", %"class.std::unordered_set", %"class.std::unique_ptr", %"class.std::vector", %"class.std::map.12", %"class.std::map.20" }
%"struct.ceres::Problem::Options" = type { i32, i32, i32, i8, i8, ptr, ptr }
%"class.std::map" = type { %"class.std::_Rb_tree" }
%"class.std::_Rb_tree" = type { %"struct.std::_Rb_tree<double *, std::pair<double *const, ceres::internal::ParameterBlock *>, std::_Select1st<std::pair<double *const, ceres::internal::ParameterBlock *>>, std::less<double *>>::_Rb_tree_impl" }
%"struct.std::_Rb_tree<double *, std::pair<double *const, ceres::internal::ParameterBlock *>, std::_Select1st<std::pair<double *const, ceres::internal::ParameterBlock *>>, std::less<double *>>::_Rb_tree_impl" = type { %"struct.std::_Rb_tree_key_compare", %"struct.std::_Rb_tree_header" }
%"struct.std::_Rb_tree_key_compare" = type { %"struct.std::less" }
%"struct.std::less" = type { i8 }
%"struct.std::_Rb_tree_header" = type { %"struct.std::_Rb_tree_node_base", i64 }
%"struct.std::_Rb_tree_node_base" = type { i32, ptr, ptr, ptr }
%"class.std::unordered_set" = type { %"class.std::_Hashtable" }
%"class.std::_Hashtable" = type { ptr, i64, %"struct.std::__detail::_Hash_node_base", i64, %"struct.std::__detail::_Prime_rehash_policy", ptr }
%"struct.std::__detail::_Hash_node_base" = type { ptr }
%"struct.std::__detail::_Prime_rehash_policy" = type { float, i64 }
%"class.std::unique_ptr" = type { %"struct.std::__uniq_ptr_data" }
%"struct.std::__uniq_ptr_data" = type { %"class.std::__uniq_ptr_impl" }
%"class.std::__uniq_ptr_impl" = type { %"class.std::tuple" }
%"class.std::tuple" = type { %"struct.std::_Tuple_impl" }
%"struct.std::_Tuple_impl" = type { %"struct.std::_Head_base.8" }
%"struct.std::_Head_base.8" = type { ptr }
%"class.std::vector" = type { %"struct.std::_Vector_base" }
%"struct.std::_Vector_base" = type { %"struct.std::_Vector_base<ceres::Manifold *, std::allocator<ceres::Manifold *>>::_Vector_impl" }
%"struct.std::_Vector_base<ceres::Manifold *, std::allocator<ceres::Manifold *>>::_Vector_impl" = type { %"struct.std::_Vector_base<ceres::Manifold *, std::allocator<ceres::Manifold *>>::_Vector_impl_data" }
%"struct.std::_Vector_base<ceres::Manifold *, std::allocator<ceres::Manifold *>>::_Vector_impl_data" = type { ptr, ptr, ptr }
%"class.std::map.12" = type { %"class.std::_Rb_tree.13" }
%"class.std::_Rb_tree.13" = type { %"struct.std::_Rb_tree<ceres::CostFunction *, std::pair<ceres::CostFunction *const, int>, std::_Select1st<std::pair<ceres::CostFunction *const, int>>, std::less<ceres::CostFunction *>>::_Rb_tree_impl" }
%"struct.std::_Rb_tree<ceres::CostFunction *, std::pair<ceres::CostFunction *const, int>, std::_Select1st<std::pair<ceres::CostFunction *const, int>>, std::less<ceres::CostFunction *>>::_Rb_tree_impl" = type { %"struct.std::_Rb_tree_key_compare.17", %"struct.std::_Rb_tree_header" }
%"struct.std::_Rb_tree_key_compare.17" = type { %"struct.std::less.18" }
%"struct.std::less.18" = type { i8 }
%"class.std::map.20" = type { %"class.std::_Rb_tree.21" }
%"class.std::_Rb_tree.21" = type { %"struct.std::_Rb_tree<ceres::LossFunction *, std::pair<ceres::LossFunction *const, int>, std::_Select1st<std::pair<ceres::LossFunction *const, int>>, std::less<ceres::LossFunction *>>::_Rb_tree_impl" }
%"struct.std::_Rb_tree<ceres::LossFunction *, std::pair<ceres::LossFunction *const, int>, std::_Select1st<std::pair<ceres::LossFunction *const, int>>, std::less<ceres::LossFunction *>>::_Rb_tree_impl" = type { %"struct.std::_Rb_tree_key_compare.25", %"struct.std::_Rb_tree_header" }
%"struct.std::_Rb_tree_key_compare.25" = type { %"struct.std::less.26" }
%"struct.std::less.26" = type { i8 }
%"class.ceres::internal::ParameterBlock" = type { ptr, i32, i8, ptr, ptr, %"class.std::unique_ptr.28", i32, i32, i32, %"class.std::unique_ptr.36", %"class.std::unique_ptr.28", %"class.std::unique_ptr.28" }
%"class.std::unique_ptr.36" = type { %"struct.std::__uniq_ptr_data.37" }
%"struct.std::__uniq_ptr_data.37" = type { %"class.std::__uniq_ptr_impl.38" }
%"class.std::__uniq_ptr_impl.38" = type { %"class.std::tuple.39" }
%"class.std::tuple.39" = type { %"struct.std::_Tuple_impl.40" }
%"struct.std::_Tuple_impl.40" = type { %"struct.std::_Head_base.43" }
%"struct.std::_Head_base.43" = type { ptr }
%"class.std::unique_ptr.28" = type { %"struct.std::__uniq_ptr_data.29" }
%"struct.std::__uniq_ptr_data.29" = type { %"class.std::__uniq_ptr_impl.30" }
%"class.std::__uniq_ptr_impl.30" = type { %"class.std::tuple.31" }
%"class.std::tuple.31" = type { %"struct.std::_Tuple_impl.32" }
%"struct.std::_Tuple_impl.32" = type { %"struct.std::_Head_base.35" }
%"struct.std::_Head_base.35" = type { ptr }

; Function Attrs: mustprogress uwtable
define linkonce_odr hidden noundef i64 @_ZNSt3mapIPdPN5ceres8internal14ParameterBlockESt4lessIS0_ESaISt4pairIKS0_S4_EEE5eraseERS8_(ptr noundef nonnull align 8 dereferenceable(48) %0, ptr noundef nonnull align 8 dereferenceable(8) %1) #2 comdat align 2 {
  %3 = alloca ptr, align 8
  %4 = alloca ptr, align 8
  store ptr %0, ptr %3, align 8
  store ptr %1, ptr %4, align 8
  %5 = load ptr, ptr %3, align 8
  %6 = getelementptr inbounds %"class.std::map", ptr %5, i32 0, i32 0
  %7 = load ptr, ptr %4, align 8
  %8 = call noundef i64 @_ZNSt8_Rb_treeIPdSt4pairIKS0_PN5ceres8internal14ParameterBlockEESt10_Select1stIS7_ESt4lessIS0_ESaIS7_EE5eraseERS2_(ptr noundef nonnull align 8 dereferenceable(48) %6, ptr noundef nonnull align 8 dereferenceable(8) %7)
  ret i64 %8
}

; Function Attrs: mustprogress nounwind uwtable
define linkonce_odr hidden noundef ptr @_ZN5ceres8internal14ParameterBlock18mutable_user_stateEv(ptr noundef nonnull align 8 dereferenceable(80) %0) #1 comdat align 2 {
  %2 = alloca ptr, align 8
  store ptr %0, ptr %2, align 8
  %3 = load ptr, ptr %2, align 8
  %4 = getelementptr inbounds %"class.ceres::internal::ParameterBlock", ptr %3, i32 0, i32 0
  %5 = load ptr, ptr %4, align 8
  ret ptr %5
}

; Function Attrs: mustprogress uwtable
define hidden void @_ZN5ceres8internal11ProblemImpl11DeleteBlockEPNS0_14ParameterBlockE(ptr noundef nonnull align 8 dereferenceable(280) %0, ptr noundef %1) #2 align 2 {
  %3 = alloca ptr, align 8
  %4 = alloca ptr, align 8
  %5 = alloca ptr, align 8
  store ptr %0, ptr %3, align 8
  store ptr %1, ptr %4, align 8
  %6 = load ptr, ptr %3, align 8
  %7 = getelementptr inbounds %"class.ceres::internal::ProblemImpl", ptr %6, i32 0, i32 3
  %8 = load ptr, ptr %4, align 8
  %9 = call noundef ptr @_ZN5ceres8internal14ParameterBlock18mutable_user_stateEv(ptr noundef nonnull align 8 dereferenceable(80) %8)
  store ptr %9, ptr %5, align 8
  %10 = call noundef i64 @_ZNSt3mapIPdPN5ceres8internal14ParameterBlockESt4lessIS0_ESaISt4pairIKS0_S4_EEE5eraseERS8_(ptr noundef nonnull align 8 dereferenceable(48) %7, ptr noundef nonnull align 8 dereferenceable(8) %5)
  %11 = load ptr, ptr %4, align 8
  %12 = icmp eq ptr %11, null
  br i1 %12, label %14, label %13

13:                                               ; preds = %2
  call void @_ZN5ceres8internal14ParameterBlockD2Ev(ptr noundef nonnull align 8 dereferenceable(80) %11) #18
  call void @_ZdlPv(ptr noundef %11) #20
  br label %14

14:                                               ; preds = %13, %2
  ret void
}