; Function Attrs: mustprogress uwtable
define hidden void @_ZN5ceres8internal11ProblemImpl11DeleteBlockEPNS0_14ParameterBlockE(ptr noundef nonnull align 8 dereferenceable(280) %0, ptr noundef %1) local_unnamed_addr #0 align 2 {
  %3 = alloca ptr, align 8
  %4 = getelementptr inbounds i8, ptr %0, i64 48
  %5 = load ptr, ptr %1, align 8
  store ptr %5, ptr %3, align 8
  %6 = call noundef i64 @_ZNSt8_Rb_treeIPdSt4pairIKS0_PN5ceres8internal14ParameterBlockEESt10_Select1stIS7_ESt4lessIS0_ESaIS7_EE5eraseERS2_(ptr noundef nonnull align 8 dereferenceable(48) %4, ptr noundef nonnull align 8 dereferenceable(8) %3)
  call void @_ZN5ceres8internal14ParameterBlockD2Ev(ptr noundef nonnull align 8 dereferenceable(80) %1) #28
  call void @_ZdlPv(ptr noundef %1) #27
  ret void
}